; Function Attrs: inlinehint mustprogress nounwind optsize uwtable
define internal noundef ptr @"_ZZN8nanobind6detail11func_createILb1ELb1EZZL27nanobind_init_test_eval_extRNS_7module_EENK3$_1clEvEUlvE_iJETpTnmJEJEEEP7_objectOT1_PFT2_DpT3_ESt16integer_sequenceImJXspT4_EEEDpRKT5_ENUlPvPS7_PhNS_9rv_policyEPNS0_12cleanup_listEE_8__invokeESL_SM_SN_SO_SQ_"(ptr readnone captures(none) %0, ptr readnone captures(none) %1, ptr readnone captures(none) %2, i32 %3, ptr readnone captures(none) %4) #8 align 2 personality ptr @__gxx_personality_v0 {
  %6 = invoke ptr @PyLong_FromLong(i64 noundef 42) #12
          to label %"_ZZN8nanobind6detail11func_createILb1ELb1EZZL27nanobind_init_test_eval_extRNS_7module_EENK3$_1clEvEUlvE_iJETpTnmJEJEEEP7_objectOT1_PFT2_DpT3_ESt16integer_sequenceImJXspT4_EEEDpRKT5_ENKUlPvPS7_PhNS_9rv_policyEPNS0_12cleanup_listEE_clESL_SM_SN_SO_SQ_.exit" unwind label %7

7:                                                ; preds = %5
  %8 = landingpad { ptr, i32 }
          catch ptr null
  %9 = extractvalue { ptr, i32 } %8, 0
  tail call void @__clang_call_terminate(ptr %9) #15
  unreachable

"_ZZN8nanobind6detail11func_createILb1ELb1EZZL27nanobind_init_test_eval_extRNS_7module_EENK3$_1clEvEUlvE_iJETpTnmJEJEEEP7_objectOT1_PFT2_DpT3_ESt16integer_sequenceImJXspT4_EEEDpRKT5_ENKUlPvPS7_PhNS_9rv_policyEPNS0_12cleanup_listEE_clESL_SM_SN_SO_SQ_.exit": ; preds = %5
  ret ptr %6
}